; Function Attrs: mustprogress uwtable
define noundef ptr @_ZN5arrow8internal16GetCpuThreadPoolEv() local_unnamed_addr #3 personality ptr @__gxx_personality_v0 {
  %1 = load atomic i8, ptr @_ZGVZN5arrow8internal16GetCpuThreadPoolEvE9singleton acquire, align 8
  %2 = icmp eq i8 %1, 0
  br i1 %2, label %3, label %8, !prof !240

3:                                                ; preds = %0
  %4 = tail call i32 @__cxa_guard_acquire(ptr nonnull @_ZGVZN5arrow8internal16GetCpuThreadPoolEvE9singleton) #33
  %.not = icmp eq i32 %4, 0
  br i1 %.not, label %8, label %5

5:                                                ; preds = %3
  invoke void @_ZN5arrow8internal10ThreadPool17MakeCpuThreadPoolEv(ptr dead_on_unwind nonnull writable sret(%"class.std::shared_ptr.47") align 8 @_ZZN5arrow8internal16GetCpuThreadPoolEvE9singleton)
          to label %6 unwind label %10

6:                                                ; preds = %5
  %7 = tail call i32 @__cxa_atexit(ptr nonnull @_ZNSt12__shared_ptrIN5arrow8internal10ThreadPoolELN9__gnu_cxx12_Lock_policyE2EED2Ev, ptr nonnull @_ZZN5arrow8internal16GetCpuThreadPoolEvE9singleton, ptr nonnull @__dso_handle) #33
  tail call void @__cxa_guard_release(ptr nonnull @_ZGVZN5arrow8internal16GetCpuThreadPoolEvE9singleton) #33
  br label %8

8:                                                ; preds = %6, %3, %0
  %9 = load ptr, ptr @_ZZN5arrow8internal16GetCpuThreadPoolEvE9singleton, align 8, !tbaa !199
  ret ptr %9

10:                                               ; preds = %5
  %11 = landingpad { ptr, i32 }
          cleanup
  tail call void @__cxa_guard_abort(ptr nonnull @_ZGVZN5arrow8internal16GetCpuThreadPoolEvE9singleton) #33
  resume { ptr, i32 } %11
}